#include <math.h>
#include <stdio.h>
#include <stdlib.h>
#include <string.h>
#include <iostream>
using namespace std;

/*
 * point1005.cpp
 *
 *  Created on: 2013-12-4
 *      Author: weng
 */


int main()
{
	int n , m , i , j , * p = NULL ;
	cin >> n >> m ;
	int a[n][m] ;
	for( p = * a ; p < * ( a ) + n * m ; p ++ )
			cin >> * p ;
	for( i = 0 , j = 0 ; i < n ; i ++ )
	{
		for( ; j < m ; j ++ )
		{
			p = *a + m * i + j ;
			for( int k = 0 ; k <= j && k <= m && k <= n && k < n - i ; k ++ )
				cout << * ( p + ( m - 1 ) * k ) << endl ;
		}
		j -- ;
	}
	return 0 ;
}
