; ModuleID = 'source-C-CXX/3/1138.cpp'
source_filename = "source-C-CXX/3/1138.cpp"
target datalayout = "e-m:e-p270:32:32-p271:32:32-p272:64:64-i64:64-f80:128-n8:16:32:64-S128"
target triple = "x86_64-pc-linux-gnu"

%"class.std::ios_base::Init" = type { i8 }
%"class.std::basic_istream" = type { i32 (...)**, i64, %"class.std::basic_ios" }
%"class.std::basic_ios" = type { %"class.std::ios_base", %"class.std::basic_ostream"*, i8, i8, %"class.std::basic_streambuf"*, %"class.std::ctype"*, %"class.std::num_put"*, %"class.std::num_get"* }
%"class.std::ios_base" = type { i32 (...)**, i64, i64, i32, i32, i32, %"struct.std::ios_base::_Callback_list"*, %"struct.std::ios_base::_Words", [8 x %"struct.std::ios_base::_Words"], i32, %"struct.std::ios_base::_Words"*, %"class.std::locale" }
%"struct.std::ios_base::_Callback_list" = type { %"struct.std::ios_base::_Callback_list"*, void (i32, %"class.std::ios_base"*, i32)*, i32, i32 }
%"struct.std::ios_base::_Words" = type { i8*, i64 }
%"class.std::locale" = type { %"class.std::locale::_Impl"* }
%"class.std::locale::_Impl" = type { i32, %"class.std::locale::facet"**, i64, %"class.std::locale::facet"**, i8** }
%"class.std::locale::facet" = type <{ i32 (...)**, i32, [4 x i8] }>
%"class.std::basic_ostream" = type { i32 (...)**, %"class.std::basic_ios" }
%"class.std::basic_streambuf" = type { i32 (...)**, i8*, i8*, i8*, i8*, i8*, i8*, %"class.std::locale" }
%"class.std::ctype" = type <{ %"class.std::locale::facet.base", [4 x i8], %struct.__locale_struct*, i8, [7 x i8], i32*, i32*, i16*, i8, [256 x i8], [256 x i8], i8, [6 x i8] }>
%"class.std::locale::facet.base" = type <{ i32 (...)**, i32 }>
%struct.__locale_struct = type { [13 x %struct.__locale_data*], i16*, i32*, i32*, [13 x i8*] }
%struct.__locale_data = type opaque
%"class.std::num_put" = type { %"class.std::locale::facet.base", [4 x i8] }
%"class.std::num_get" = type { %"class.std::locale::facet.base", [4 x i8] }

@_ZStL8__ioinit = internal global %"class.std::ios_base::Init" zeroinitializer, align 1
@__dso_handle = external hidden global i8
@_ZSt3cin = external global %"class.std::basic_istream", align 8
@_ZSt4cout = external global %"class.std::basic_ostream", align 8
@llvm.global_ctors = appending global [1 x { i32, void ()*, i8* }] [{ i32, void ()*, i8* } { i32 65535, void ()* @_GLOBAL__sub_I_1138.cpp, i8* null }]

declare void @_ZNSt8ios_base4InitC1Ev(%"class.std::ios_base::Init"* nonnull align 1 dereferenceable(1)) unnamed_addr #0

; Function Attrs: nounwind
declare void @_ZNSt8ios_base4InitD1Ev(%"class.std::ios_base::Init"* nonnull align 1 dereferenceable(1)) unnamed_addr #1

; Function Attrs: nofree nounwind
declare i32 @__cxa_atexit(void (i8*)*, i8*, i8*) local_unnamed_addr #2

; Function Attrs: mustprogress norecurse sspstrong uwtable
define dso_local i32 @main() local_unnamed_addr #3 {
  %1 = alloca i32, align 4
  %2 = alloca i32, align 4
  %3 = bitcast i32* %1 to i8*
  call void @llvm.lifetime.start.p0i8(i64 4, i8* nonnull %3) #8
  %4 = bitcast i32* %2 to i8*
  call void @llvm.lifetime.start.p0i8(i64 4, i8* nonnull %4) #8
  %5 = call nonnull align 8 dereferenceable(16) %"class.std::basic_istream"* @_ZNSirsERi(%"class.std::basic_istream"* nonnull align 8 dereferenceable(16) @_ZSt3cin, i32* nonnull align 4 dereferenceable(4) %1)
  %6 = call nonnull align 8 dereferenceable(16) %"class.std::basic_istream"* @_ZNSirsERi(%"class.std::basic_istream"* nonnull align 8 dereferenceable(16) %5, i32* nonnull align 4 dereferenceable(4) %2)
  %7 = load i32, i32* %1, align 4, !tbaa !5
  %8 = zext i32 %7 to i64
  %9 = load i32, i32* %2, align 4, !tbaa !5
  %10 = zext i32 %9 to i64
  %11 = call i8* @llvm.stacksave()
  %12 = mul nuw i64 %10, %8
  %13 = alloca i32, i64 %12, align 16
  %14 = load i32, i32* %1, align 4, !tbaa !5
  %15 = load i32, i32* %2, align 4, !tbaa !5
  %16 = mul nsw i32 %15, %14
  %17 = icmp sgt i32 %16, 0
  br i1 %17, label %22, label %18

18:                                               ; preds = %22, %0
  %19 = phi i32 [ %15, %0 ], [ %27, %22 ]
  %20 = phi i32 [ %14, %0 ], [ %26, %22 ]
  %21 = icmp sgt i32 %20, 0
  br i1 %21, label %32, label %126

22:                                               ; preds = %0, %22
  %23 = phi i32* [ %25, %22 ], [ %13, %0 ]
  %24 = call nonnull align 8 dereferenceable(16) %"class.std::basic_istream"* @_ZNSirsERi(%"class.std::basic_istream"* nonnull align 8 dereferenceable(16) @_ZSt3cin, i32* nonnull align 4 dereferenceable(4) %23)
  %25 = getelementptr inbounds i32, i32* %23, i64 1
  %26 = load i32, i32* %1, align 4, !tbaa !5
  %27 = load i32, i32* %2, align 4, !tbaa !5
  %28 = mul nsw i32 %27, %26
  %29 = sext i32 %28 to i64
  %30 = getelementptr inbounds i32, i32* %13, i64 %29
  %31 = icmp ult i32* %25, %30
  br i1 %31, label %22, label %18, !llvm.loop !9

32:                                               ; preds = %18, %117
  %33 = phi i32 [ %118, %117 ], [ %19, %18 ]
  %34 = phi i32 [ %119, %117 ], [ %20, %18 ]
  %35 = phi i32 [ %120, %117 ], [ %19, %18 ]
  %36 = phi i32 [ %121, %117 ], [ %19, %18 ]
  %37 = phi i32 [ %124, %117 ], [ 0, %18 ]
  %38 = phi i32 [ %123, %117 ], [ 0, %18 ]
  %39 = icmp slt i32 %38, %36
  br i1 %39, label %40, label %117

40:                                               ; preds = %32
  %41 = sext i32 %38 to i64
  br label %42

42:                                               ; preds = %40, %64
  %43 = phi i32 [ %33, %40 ], [ %65, %64 ]
  %44 = phi i32 [ %35, %40 ], [ %66, %64 ]
  %45 = phi i64 [ %41, %40 ], [ %67, %64 ]
  %46 = phi i32 [ %38, %40 ], [ %48, %64 ]
  %47 = phi i32 [ %36, %40 ], [ %66, %64 ]
  %48 = add i32 %46, 1
  %49 = mul nsw i32 %47, %37
  %50 = sext i32 %49 to i64
  %51 = add nsw i64 %45, %50
  %52 = icmp slt i64 %45, 0
  br i1 %52, label %64, label %53

53:                                               ; preds = %42
  %54 = icmp slt i32 %47, 0
  br i1 %54, label %64, label %55

55:                                               ; preds = %53, %110
  %56 = phi i32 [ %111, %110 ], [ 0, %53 ]
  %57 = phi i32 [ %112, %110 ], [ %47, %53 ]
  %58 = phi i32 [ %112, %110 ], [ %43, %53 ]
  %59 = load i32, i32* %1, align 4, !tbaa !5
  %60 = icmp sle i32 %56, %59
  %61 = sub nsw i32 %59, %37
  %62 = icmp slt i32 %56, %61
  %63 = select i1 %60, i1 %62, i1 false
  br i1 %63, label %70, label %64

64:                                               ; preds = %110, %55, %53, %108, %42
  %65 = phi i32 [ %43, %42 ], [ %109, %108 ], [ %43, %53 ], [ %58, %55 ], [ %112, %110 ]
  %66 = phi i32 [ %44, %42 ], [ %109, %108 ], [ %43, %53 ], [ %58, %55 ], [ %112, %110 ]
  %67 = add nsw i64 %45, 1
  %68 = sext i32 %66 to i64
  %69 = icmp slt i64 %67, %68
  br i1 %69, label %42, label %114, !llvm.loop !11

70:                                               ; preds = %55
  %71 = add nsw i32 %57, -1
  %72 = mul nsw i32 %71, %56
  %73 = sext i32 %72 to i64
  %74 = add nsw i64 %51, %73
  %75 = getelementptr inbounds i32, i32* %13, i64 %74
  %76 = load i32, i32* %75, align 4, !tbaa !5
  %77 = call nonnull align 8 dereferenceable(8) %"class.std::basic_ostream"* @_ZNSolsEi(%"class.std::basic_ostream"* nonnull align 8 dereferenceable(8) @_ZSt4cout, i32 %76)
  %78 = bitcast %"class.std::basic_ostream"* %77 to i8**
  %79 = load i8*, i8** %78, align 8, !tbaa !12
  %80 = getelementptr i8, i8* %79, i64 -24
  %81 = bitcast i8* %80 to i64*
  %82 = load i64, i64* %81, align 8
  %83 = bitcast %"class.std::basic_ostream"* %77 to i8*
  %84 = add nsw i64 %82, 240
  %85 = getelementptr inbounds i8, i8* %83, i64 %84
  %86 = bitcast i8* %85 to %"class.std::ctype"**
  %87 = load %"class.std::ctype"*, %"class.std::ctype"** %86, align 8, !tbaa !14
  %88 = icmp eq %"class.std::ctype"* %87, null
  br i1 %88, label %89, label %90

89:                                               ; preds = %70
  call void @_ZSt16__throw_bad_castv() #9
  unreachable

90:                                               ; preds = %70
  %91 = getelementptr inbounds %"class.std::ctype", %"class.std::ctype"* %87, i64 0, i32 8
  %92 = load i8, i8* %91, align 8, !tbaa !18
  %93 = icmp eq i8 %92, 0
  br i1 %93, label %97, label %94

94:                                               ; preds = %90
  %95 = getelementptr inbounds %"class.std::ctype", %"class.std::ctype"* %87, i64 0, i32 9, i64 10
  %96 = load i8, i8* %95, align 1, !tbaa !20
  br label %103

97:                                               ; preds = %90
  call void @_ZNKSt5ctypeIcE13_M_widen_initEv(%"class.std::ctype"* nonnull align 8 dereferenceable(570) %87)
  %98 = bitcast %"class.std::ctype"* %87 to i8 (%"class.std::ctype"*, i8)***
  %99 = load i8 (%"class.std::ctype"*, i8)**, i8 (%"class.std::ctype"*, i8)*** %98, align 8, !tbaa !12
  %100 = getelementptr inbounds i8 (%"class.std::ctype"*, i8)*, i8 (%"class.std::ctype"*, i8)** %99, i64 6
  %101 = load i8 (%"class.std::ctype"*, i8)*, i8 (%"class.std::ctype"*, i8)** %100, align 8
  %102 = call signext i8 %101(%"class.std::ctype"* nonnull align 8 dereferenceable(570) %87, i8 signext 10)
  br label %103

103:                                              ; preds = %94, %97
  %104 = phi i8 [ %96, %94 ], [ %102, %97 ]
  %105 = call nonnull align 8 dereferenceable(8) %"class.std::basic_ostream"* @_ZNSo3putEc(%"class.std::basic_ostream"* nonnull align 8 dereferenceable(8) %77, i8 signext %104)
  %106 = call nonnull align 8 dereferenceable(8) %"class.std::basic_ostream"* @_ZNSo5flushEv(%"class.std::basic_ostream"* nonnull align 8 dereferenceable(8) %105)
  %107 = icmp eq i32 %56, %46
  br i1 %107, label %108, label %110, !llvm.loop !21

108:                                              ; preds = %103
  %109 = load i32, i32* %2, align 4, !tbaa !5
  br label %64

110:                                              ; preds = %103
  %111 = add nuw nsw i32 %56, 1
  %112 = load i32, i32* %2, align 4, !tbaa !5
  %113 = icmp slt i32 %56, %112
  br i1 %113, label %55, label %64

114:                                              ; preds = %64
  %115 = trunc i64 %67 to i32
  %116 = load i32, i32* %1, align 4, !tbaa !5
  br label %117

117:                                              ; preds = %114, %32
  %118 = phi i32 [ %33, %32 ], [ %65, %114 ]
  %119 = phi i32 [ %34, %32 ], [ %116, %114 ]
  %120 = phi i32 [ %35, %32 ], [ %66, %114 ]
  %121 = phi i32 [ %36, %32 ], [ %66, %114 ]
  %122 = phi i32 [ %38, %32 ], [ %115, %114 ]
  %123 = add nsw i32 %122, -1
  %124 = add nuw nsw i32 %37, 1
  %125 = icmp slt i32 %124, %119
  br i1 %125, label %32, label %126, !llvm.loop !22

126:                                              ; preds = %117, %18
  call void @llvm.stackrestore(i8* %11)
  call void @llvm.lifetime.end.p0i8(i64 4, i8* nonnull %4) #8
  call void @llvm.lifetime.end.p0i8(i64 4, i8* nonnull %3) #8
  ret i32 0
}

; Function Attrs: argmemonly mustprogress nofree nosync nounwind willreturn
declare void @llvm.lifetime.start.p0i8(i64 immarg, i8* nocapture) #4

declare nonnull align 8 dereferenceable(16) %"class.std::basic_istream"* @_ZNSirsERi(%"class.std::basic_istream"* nonnull align 8 dereferenceable(16), i32* nonnull align 4 dereferenceable(4)) local_unnamed_addr #0

; Function Attrs: mustprogress nofree nosync nounwind willreturn
declare i8* @llvm.stacksave() #5

declare nonnull align 8 dereferenceable(8) %"class.std::basic_ostream"* @_ZNSolsEi(%"class.std::basic_ostream"* nonnull align 8 dereferenceable(8), i32) local_unnamed_addr #0

; Function Attrs: argmemonly mustprogress nofree nosync nounwind willreturn
declare void @llvm.lifetime.end.p0i8(i64 immarg, i8* nocapture) #4

; Function Attrs: mustprogress nofree nosync nounwind willreturn
declare void @llvm.stackrestore(i8*) #5

declare nonnull align 8 dereferenceable(8) %"class.std::basic_ostream"* @_ZNSo3putEc(%"class.std::basic_ostream"* nonnull align 8 dereferenceable(8), i8 signext) local_unnamed_addr #0

declare nonnull align 8 dereferenceable(8) %"class.std::basic_ostream"* @_ZNSo5flushEv(%"class.std::basic_ostream"* nonnull align 8 dereferenceable(8)) local_unnamed_addr #0

; Function Attrs: noreturn
declare void @_ZSt16__throw_bad_castv() local_unnamed_addr #6

declare void @_ZNKSt5ctypeIcE13_M_widen_initEv(%"class.std::ctype"* nonnull align 8 dereferenceable(570)) local_unnamed_addr #0

; Function Attrs: sspstrong uwtable
define internal void @_GLOBAL__sub_I_1138.cpp() #7 section ".text.startup" {
  tail call void @_ZNSt8ios_base4InitC1Ev(%"class.std::ios_base::Init"* nonnull align 1 dereferenceable(1) @_ZStL8__ioinit)
  %1 = tail call i32 @__cxa_atexit(void (i8*)* bitcast (void (%"class.std::ios_base::Init"*)* @_ZNSt8ios_base4InitD1Ev to void (i8*)*), i8* getelementptr inbounds (%"class.std::ios_base::Init", %"class.std::ios_base::Init"* @_ZStL8__ioinit, i64 0, i32 0), i8* nonnull @__dso_handle) #8
  ret void
}


!llvm.module.flags = !{!0, !1, !2, !3}
!llvm.ident = !{!4}

!0 = !{i32 1, !"wchar_size", i32 4}
!1 = !{i32 7, !"PIC Level", i32 2}
!2 = !{i32 7, !"PIE Level", i32 2}
!3 = !{i32 7, !"uwtable", i32 1}
!4 = !{!"clang version 13.0.0"}
!5 = !{!6, !6, i64 0}
!6 = !{!"int", !7, i64 0}
!7 = !{!"omnipotent char", !8, i64 0}
!8 = !{!"Simple C++ TBAA"}
!9 = distinct !{!9, !10}
!10 = !{!"llvm.loop.mustprogress"}
!11 = distinct !{!11, !10}
!12 = !{!13, !13, i64 0}
!13 = !{!"vtable pointer", !8, i64 0}
!14 = !{!15, !16, i64 240}
!15 = !{!"_ZTSSt9basic_iosIcSt11char_traitsIcEE", !16, i64 216, !7, i64 224, !17, i64 225, !16, i64 232, !16, i64 240, !16, i64 248, !16, i64 256}
!16 = !{!"any pointer", !7, i64 0}
!17 = !{!"bool", !7, i64 0}
!18 = !{!19, !7, i64 56}
!19 = !{!"_ZTSSt5ctypeIcE", !16, i64 16, !17, i64 24, !16, i64 32, !16, i64 40, !16, i64 48, !7, i64 56, !7, i64 57, !7, i64 313, !7, i64 569}
!20 = !{!7, !7, i64 0}
!21 = distinct !{!21, !10}
!22 = distinct !{!22, !10}
